target datalayout = "e-m:e-p270:32:32-p271:32:32-p272:64:64-i64:64-i128:128-f80:128-n8:16:32:64-S128"
target triple = "x86_64-pc-linux-gnu"

; Function Attrs: nounwind uwtable
define hidden zeroext i8 @parse_cube_line(ptr noundef %0, ptr noundef %1) #0 {
  %3 = alloca i8, align 1
  %4 = alloca ptr, align 8
  %5 = alloca ptr, align 8
  %6 = alloca i32, align 4
  %7 = alloca i8, align 1
  %8 = alloca i8, align 1
  %9 = alloca ptr, align 8
  %10 = alloca ptr, align 8
  %11 = alloca i32, align 4
  store ptr %0, ptr %4, align 8, !tbaa !41
  store ptr %1, ptr %5, align 8, !tbaa !41
  call void @llvm.lifetime.start.p0(i64 4, ptr %6) #13
  store i32 50, ptr %6, align 4, !tbaa !16
  call void @llvm.lifetime.start.p0(i64 1, ptr %7) #13
  store i8 0, ptr %7, align 1, !tbaa !47
  call void @llvm.lifetime.start.p0(i64 1, ptr %8) #13
  store i8 0, ptr %8, align 1, !tbaa !47
  call void @llvm.lifetime.start.p0(i64 8, ptr %9) #13
  %12 = load ptr, ptr %5, align 8, !tbaa !41
  %13 = getelementptr inbounds [50 x i8], ptr %12, i64 0
  %14 = getelementptr inbounds [50 x i8], ptr %13, i64 0, i64 0
  store ptr %14, ptr %9, align 8, !tbaa !41
  call void @llvm.lifetime.start.p0(i64 8, ptr %10) #13
  %15 = load ptr, ptr %4, align 8, !tbaa !41
  store ptr %15, ptr %10, align 8, !tbaa !41
  br label %16

16:                                               ; preds = %106, %2
  %17 = load ptr, ptr %10, align 8, !tbaa !41
  %18 = load i8, ptr %17, align 1, !tbaa !47
  %19 = sext i8 %18 to i32
  %20 = icmp ne i32 %19, 0
  br i1 %20, label %21, label %25

21:                                               ; preds = %16
  %22 = load i8, ptr %7, align 1, !tbaa !47
  %23 = zext i8 %22 to i32
  %24 = icmp slt i32 %23, 50
  br label %25

25:                                               ; preds = %21, %16
  %26 = phi i1 [ false, %16 ], [ %24, %21 ]
  br i1 %26, label %27, label %107

27:                                               ; preds = %25
  %28 = load ptr, ptr %10, align 8, !tbaa !41
  %29 = load i8, ptr %28, align 1, !tbaa !47
  %30 = sext i8 %29 to i32
  %31 = icmp eq i32 %30, 35
  br i1 %31, label %42, label %32

32:                                               ; preds = %27
  %33 = load ptr, ptr %10, align 8, !tbaa !41
  %34 = load i8, ptr %33, align 1, !tbaa !47
  %35 = sext i8 %34 to i32
  %36 = icmp eq i32 %35, 10
  br i1 %36, label %42, label %37

37:                                               ; preds = %32
  %38 = load ptr, ptr %10, align 8, !tbaa !41
  %39 = load i8, ptr %38, align 1, !tbaa !47
  %40 = sext i8 %39 to i32
  %41 = icmp eq i32 %40, 13
  br i1 %41, label %42, label %54

42:                                               ; preds = %37, %32, %27
  %43 = load i8, ptr %7, align 1, !tbaa !47
  %44 = zext i8 %43 to i32
  %45 = icmp sgt i32 %44, 0
  br i1 %45, label %46, label %51

46:                                               ; preds = %42
  %47 = load ptr, ptr %9, align 8, !tbaa !41
  store i8 0, ptr %47, align 1, !tbaa !47
  %48 = load i8, ptr %8, align 1, !tbaa !47
  %49 = add i8 %48, 1
  store i8 %49, ptr %8, align 1, !tbaa !47
  %50 = load i8, ptr %8, align 1, !tbaa !47
  store i8 %50, ptr %3, align 1
  store i32 1, ptr %11, align 4
  br label %118

51:                                               ; preds = %42
  %52 = load ptr, ptr %9, align 8, !tbaa !41
  store i8 0, ptr %52, align 1, !tbaa !47
  %53 = load i8, ptr %8, align 1, !tbaa !47
  store i8 %53, ptr %3, align 1
  store i32 1, ptr %11, align 4
  br label %118

54:                                               ; preds = %37
  %55 = load ptr, ptr %10, align 8, !tbaa !41
  %56 = load i8, ptr %55, align 1, !tbaa !47
  %57 = sext i8 %56 to i32
  %58 = icmp eq i32 %57, 32
  br i1 %58, label %64, label %59

59:                                               ; preds = %54
  %60 = load ptr, ptr %10, align 8, !tbaa !41
  %61 = load i8, ptr %60, align 1, !tbaa !47
  %62 = sext i8 %61 to i32
  %63 = icmp eq i32 %62, 9
  br i1 %63, label %64, label %86

64:                                               ; preds = %59, %54
  %65 = load i8, ptr %7, align 1, !tbaa !47
  %66 = zext i8 %65 to i32
  %67 = icmp sgt i32 %66, 0
  br i1 %67, label %68, label %85

68:                                               ; preds = %64
  %69 = load ptr, ptr %9, align 8, !tbaa !41
  store i8 0, ptr %69, align 1, !tbaa !47
  %70 = load i8, ptr %8, align 1, !tbaa !47
  %71 = add i8 %70, 1
  store i8 %71, ptr %8, align 1, !tbaa !47
  store i8 0, ptr %7, align 1, !tbaa !47
  %72 = load ptr, ptr %5, align 8, !tbaa !41
  %73 = load i8, ptr %8, align 1, !tbaa !47
  %74 = zext i8 %73 to i32
  %75 = icmp sgt i32 %74, 2
  br i1 %75, label %76, label %77

76:                                               ; preds = %68
  br label %80

77:                                               ; preds = %68
  %78 = load i8, ptr %8, align 1, !tbaa !47
  %79 = zext i8 %78 to i32
  br label %80

80:                                               ; preds = %77, %76
  %81 = phi i32 [ 2, %76 ], [ %79, %77 ]
  %82 = sext i32 %81 to i64
  %83 = getelementptr inbounds [50 x i8], ptr %72, i64 %82
  %84 = getelementptr inbounds [50 x i8], ptr %83, i64 0, i64 0
  store ptr %84, ptr %9, align 8, !tbaa !41
  br label %85

85:                                               ; preds = %80, %64
  br label %94

86:                                               ; preds = %59
  %87 = load ptr, ptr %10, align 8, !tbaa !41
  %88 = load i8, ptr %87, align 1, !tbaa !47
  %89 = load ptr, ptr %9, align 8, !tbaa !41
  store i8 %88, ptr %89, align 1, !tbaa !47
  %90 = load ptr, ptr %9, align 8, !tbaa !41
  %91 = getelementptr inbounds nuw i8, ptr %90, i32 1
  store ptr %91, ptr %9, align 8, !tbaa !41
  %92 = load i8, ptr %7, align 1, !tbaa !47
  %93 = add i8 %92, 1
  store i8 %93, ptr %7, align 1, !tbaa !47
  br label %94

94:                                               ; preds = %86, %85
  %95 = load ptr, ptr %10, align 8, !tbaa !41
  %96 = getelementptr inbounds nuw i8, ptr %95, i32 1
  store ptr %96, ptr %10, align 8, !tbaa !41
  %97 = load ptr, ptr %10, align 8, !tbaa !41
  %98 = load i8, ptr %97, align 1, !tbaa !47
  %99 = sext i8 %98 to i32
  %100 = icmp eq i32 %99, 0
  br i1 %100, label %101, label %106

101:                                              ; preds = %94
  %102 = load ptr, ptr %9, align 8, !tbaa !41
  store i8 0, ptr %102, align 1, !tbaa !47
  %103 = load i8, ptr %8, align 1, !tbaa !47
  %104 = add i8 %103, 1
  store i8 %104, ptr %8, align 1, !tbaa !47
  %105 = load i8, ptr %8, align 1, !tbaa !47
  store i8 %105, ptr %3, align 1
  store i32 1, ptr %11, align 4
  br label %118

106:                                              ; preds = %94
  br label %16

107:                                              ; preds = %25
  %108 = load ptr, ptr %5, align 8, !tbaa !41
  %109 = getelementptr inbounds [50 x i8], ptr %108, i64 0
  %110 = getelementptr inbounds [50 x i8], ptr %109, i64 0, i64 49
  store i8 0, ptr %110, align 1, !tbaa !47
  %111 = load ptr, ptr %5, align 8, !tbaa !41
  %112 = getelementptr inbounds [50 x i8], ptr %111, i64 1
  %113 = getelementptr inbounds [50 x i8], ptr %112, i64 0, i64 49
  store i8 0, ptr %113, align 1, !tbaa !47
  %114 = load ptr, ptr %5, align 8, !tbaa !41
  %115 = getelementptr inbounds [50 x i8], ptr %114, i64 2
  %116 = getelementptr inbounds [50 x i8], ptr %115, i64 0, i64 49
  store i8 0, ptr %116, align 1, !tbaa !47
  %117 = load i8, ptr %8, align 1, !tbaa !47
  store i8 %117, ptr %3, align 1
  store i32 1, ptr %11, align 4
  br label %118

118:                                              ; preds = %107, %101, %51, %46
  call void @llvm.lifetime.end.p0(i64 8, ptr %10) #13
  call void @llvm.lifetime.end.p0(i64 8, ptr %9) #13
  call void @llvm.lifetime.end.p0(i64 1, ptr %8) #13
  call void @llvm.lifetime.end.p0(i64 1, ptr %7) #13
  call void @llvm.lifetime.end.p0(i64 4, ptr %6) #13
  %119 = load i8, ptr %3, align 1
  ret i8 %119
}