; Function Attrs: nofree norecurse nosync nounwind memory(argmem: readwrite) uwtable
define hidden zeroext i8 @parse_cube_line(ptr noundef readonly captures(none) %0, ptr noundef writeonly captures(none) %1) local_unnamed_addr #8 {
  %.pr = load i8, ptr %0, align 1, !tbaa !73
  br label %3

3:                                                ; preds = %20, %2
  %4 = phi i8 [ %22, %20 ], [ %.pr, %2 ]
  %.037 = phi i8 [ %.138, %20 ], [ 0, %2 ]
  %.035 = phi i8 [ %.136, %20 ], [ 0, %2 ]
  %.034 = phi ptr [ %.1, %20 ], [ %1, %2 ]
  %.0 = phi ptr [ %21, %20 ], [ %0, %2 ]
  %5 = icmp ne i8 %4, 0
  %6 = icmp ult i8 %.037, 50
  %7 = select i1 %5, i1 %6, i1 false
  br i1 %7, label %8, label %26

8:                                                ; preds = %3
  switch i8 %4, label %17 [
    i8 35, label %9
    i8 10, label %9
    i8 13, label %9
    i8 32, label %11
    i8 9, label %11
  ]

9:                                                ; preds = %8, %8, %8
  %.not42 = icmp ne i8 %.037, 0
  store i8 0, ptr %.034, align 1, !tbaa !73
  %10 = zext i1 %.not42 to i8
  %spec.select = add i8 %.035, %10
  br label %30

11:                                               ; preds = %8, %8
  %.not = icmp eq i8 %.037, 0
  br i1 %.not, label %20, label %12

12:                                               ; preds = %11
  store i8 0, ptr %.034, align 1, !tbaa !73
  %13 = add i8 %.035, 1
  %14 = tail call i8 @llvm.umin.i8(i8 %13, i8 2)
  %15 = zext nneg i8 %14 to i64
  %16 = getelementptr inbounds nuw [50 x i8], ptr %1, i64 %15
  br label %20

17:                                               ; preds = %8
  store i8 %4, ptr %.034, align 1, !tbaa !73
  %18 = getelementptr inbounds nuw i8, ptr %.034, i64 1
  %19 = add nuw nsw i8 %.037, 1
  br label %20

20:                                               ; preds = %11, %12, %17
  %.138 = phi i8 [ 0, %12 ], [ 0, %11 ], [ %19, %17 ]
  %.136 = phi i8 [ %13, %12 ], [ %.035, %11 ], [ %.035, %17 ]
  %.1 = phi ptr [ %16, %12 ], [ %.034, %11 ], [ %18, %17 ]
  %21 = getelementptr inbounds nuw i8, ptr %.0, i64 1
  %22 = load i8, ptr %21, align 1, !tbaa !73
  %23 = icmp eq i8 %22, 0
  br i1 %23, label %24, label %3

24:                                               ; preds = %20
  store i8 0, ptr %.1, align 1, !tbaa !73
  %25 = add i8 %.136, 1
  br label %30

26:                                               ; preds = %3
  %27 = getelementptr inbounds nuw i8, ptr %1, i64 49
  store i8 0, ptr %27, align 1, !tbaa !73
  %28 = getelementptr inbounds nuw i8, ptr %1, i64 99
  store i8 0, ptr %28, align 1, !tbaa !73
  %29 = getelementptr inbounds nuw i8, ptr %1, i64 149
  store i8 0, ptr %29, align 1, !tbaa !73
  br label %30

30:                                               ; preds = %9, %26, %24
  %.039 = phi i8 [ %25, %24 ], [ %.035, %26 ], [ %spec.select, %9 ]
  ret i8 %.039
}